target datalayout = "e-m:e-p270:32:32-p271:32:32-p272:64:64-i64:64-i128:128-f80:128-n8:16:32:64-S128"
target triple = "x86_64-pc-linux-gnu"

%struct.IndexTupleData = type { %struct.ItemPointerData, i16 }
%struct.ItemPointerData = type { %struct.BlockIdData, i16 }
%struct.BlockIdData = type { i16, i16 }

; Function Attrs: inlinehint nounwind uwtable
define internal i64 @IndexTupleSize(ptr noundef %0) #2 {
  %2 = alloca ptr, align 8
  store ptr %0, ptr %2, align 8
  %3 = load ptr, ptr %2, align 8
  %4 = getelementptr inbounds nuw %struct.IndexTupleData, ptr %3, i32 0, i32 1
  %5 = load i16, ptr %4, align 2
  %6 = zext i16 %5 to i32
  %7 = and i32 %6, 8191
  %8 = sext i32 %7 to i64
  ret i64 %8
}

; Function Attrs: nounwind uwtable
define dso_local zeroext i1 @gistfitpage(ptr noundef %0, i32 noundef %1) #0 {
  %3 = alloca ptr, align 8
  %4 = alloca i32, align 4
  %5 = alloca i32, align 4
  %6 = alloca i64, align 8
  store ptr %0, ptr %3, align 8
  store i32 %1, ptr %4, align 4
  call void @llvm.lifetime.start.p0(i64 4, ptr %5) #8
  call void @llvm.lifetime.start.p0(i64 8, ptr %6) #8
  store i64 0, ptr %6, align 8
  store i32 0, ptr %5, align 4
  br label %7

7:                                                ; preds = %21, %2
  %8 = load i32, ptr %5, align 4
  %9 = load i32, ptr %4, align 4
  %10 = icmp slt i32 %8, %9
  br i1 %10, label %11, label %24

11:                                               ; preds = %7
  %12 = load ptr, ptr %3, align 8
  %13 = load i32, ptr %5, align 4
  %14 = sext i32 %13 to i64
  %15 = getelementptr inbounds ptr, ptr %12, i64 %14
  %16 = load ptr, ptr %15, align 8
  %17 = call i64 @IndexTupleSize(ptr noundef %16)
  %18 = add i64 %17, 4
  %19 = load i64, ptr %6, align 8
  %20 = add i64 %19, %18
  store i64 %20, ptr %6, align 8
  br label %21

21:                                               ; preds = %11
  %22 = load i32, ptr %5, align 4
  %23 = add i32 %22, 1
  store i32 %23, ptr %5, align 4
  br label %7, !llvm.loop !7

24:                                               ; preds = %7
  %25 = load i64, ptr %6, align 8
  %26 = icmp ule i64 %25, 8152
  call void @llvm.lifetime.end.p0(i64 8, ptr %6) #8
  call void @llvm.lifetime.end.p0(i64 4, ptr %5) #8
  ret i1 %26
}