; Function Attrs: nofree norecurse nosync nounwind memory(read, inaccessiblemem: none) uwtable
define dso_local zeroext i1 @gistfitpage(ptr noundef readonly captures(none) %0, i32 noundef %1) local_unnamed_addr #4 {
  %3 = icmp sgt i32 %1, 0
  br i1 %3, label %.lr.ph.preheader, label %._crit_edge

.lr.ph.preheader:                                 ; preds = %2
  %wide.trip.count = zext nneg i32 %1 to i64
  br label %.lr.ph

.lr.ph:                                           ; preds = %.lr.ph.preheader, %.lr.ph
  %indvars.iv = phi i64 [ 0, %.lr.ph.preheader ], [ %indvars.iv.next, %.lr.ph ]
  %.08 = phi i64 [ 0, %.lr.ph.preheader ], [ %9, %.lr.ph ]
  %4 = getelementptr inbounds nuw ptr, ptr %0, i64 %indvars.iv
  %5 = load ptr, ptr %4, align 8
  %6 = getelementptr i8, ptr %5, i64 6
  %.val = load i16, ptr %6, align 2
  %7 = and i16 %.val, 8191
  %narrow = add nuw nsw i16 %7, 4
  %8 = zext nneg i16 %narrow to i64
  %9 = add i64 %.08, %8
  %indvars.iv.next = add nuw nsw i64 %indvars.iv, 1
  %exitcond.not = icmp eq i64 %indvars.iv.next, %wide.trip.count
  br i1 %exitcond.not, label %._crit_edge.loopexit, label %.lr.ph, !llvm.loop !7

._crit_edge.loopexit:                             ; preds = %.lr.ph
  %10 = icmp ult i64 %9, 8153
  br label %._crit_edge

._crit_edge:                                      ; preds = %._crit_edge.loopexit, %2
  %.0.lcssa = phi i1 [ true, %2 ], [ %10, %._crit_edge.loopexit ]
  ret i1 %.0.lcssa
}